target datalayout = "e-m:e-p270:32:32-p271:32:32-p272:64:64-i64:64-i128:128-f80:128-n8:16:32:64-S128"
target triple = "x86_64-pc-linux-gnu"

%struct.XLogCtlData = type { %struct.XLogCtlInsert, %struct.XLogwrtRqst, i64, %struct.FullTransactionId, i64, i64, i64, %struct.pg_atomic_uint64, i64, i64, %struct.pg_atomic_uint64, %struct.pg_atomic_uint64, %struct.pg_atomic_uint64, i64, ptr, ptr, i32, i32, i32, i32, i8, i8, i64, i64, %struct.CheckPoint, i64, i8 }
%struct.XLogCtlInsert = type { i8, i64, i64, [128 x i8], i64, i8, i32, i64, ptr }
%struct.XLogwrtRqst = type { i64, i64 }
%struct.FullTransactionId = type { i64 }
%struct.pg_atomic_uint64 = type { i64 }
%struct.CheckPoint = type { i64, i32, i32, i8, i32, %struct.FullTransactionId, i32, i32, i32, i32, i32, i32, i32, i64, i32, i32, i32 }

@XLogCtl = internal global ptr null, align 8
@.str.14 = private unnamed_addr constant [7 x i8] c"xlog.c\00", align 1
@.str.15 = private unnamed_addr constant [79 x i8] c"cannot read past end of generated WAL: requested %X/%X, current position %X/%X\00", align 1
@__func__.WALReadFromBuffers = private unnamed_addr constant [19 x i8] c"WALReadFromBuffers\00", align 1
@LocalRecoveryInProgress = internal global i8 1, align 1

; Function Attrs: inlinehint nounwind uwtable
define internal i64 @pg_atomic_read_u64_impl(ptr noundef %0) #6 {
  %2 = alloca ptr, align 8
  store ptr %0, ptr %2, align 8
  %3 = load ptr, ptr %2, align 8
  %4 = getelementptr inbounds nuw %struct.pg_atomic_uint64, ptr %3, i32 0, i32 0
  %5 = load volatile i64, ptr %4, align 8
  ret i64 %5
}

; Function Attrs: inlinehint nounwind uwtable
define internal i64 @pg_atomic_read_u64(ptr noundef %0) #6 {
  %2 = alloca ptr, align 8
  store ptr %0, ptr %2, align 8
  %3 = load ptr, ptr %2, align 8
  %4 = call i64 @pg_atomic_read_u64_impl(ptr noundef %3)
  ret i64 %4
}

; Function Attrs: nounwind uwtable
define dso_local i32 @GetWALInsertionTimeLine() #0 {
  %1 = load ptr, ptr @XLogCtl, align 8
  %2 = getelementptr inbounds nuw %struct.XLogCtlData, ptr %1, i32 0, i32 17
  %3 = load i32, ptr %2, align 4
  ret i32 %3
}

; Function Attrs: nounwind uwtable
define dso_local zeroext i1 @RecoveryInProgress() #0 {
  %1 = alloca i1, align 1
  %2 = alloca ptr, align 8
  %3 = load i8, ptr @LocalRecoveryInProgress, align 1, !range !4, !noundef !5
  %4 = trunc i8 %3 to i1
  br i1 %4, label %6, label %5

5:                                                ; preds = %0
  store i1 false, ptr %1, align 1
  br label %15

6:                                                ; preds = %0
  call void @llvm.lifetime.start.p0(i64 8, ptr %2) #16
  %7 = load ptr, ptr @XLogCtl, align 8
  store ptr %7, ptr %2, align 8
  %8 = load ptr, ptr %2, align 8
  %9 = getelementptr inbounds nuw %struct.XLogCtlData, ptr %8, i32 0, i32 19
  %10 = load volatile i32, ptr %9, align 4
  %11 = icmp ne i32 %10, 2
  %12 = zext i1 %11 to i8
  store i8 %12, ptr @LocalRecoveryInProgress, align 1
  %13 = load i8, ptr @LocalRecoveryInProgress, align 1, !range !4, !noundef !5
  %14 = trunc i8 %13 to i1
  store i1 %14, ptr %1, align 1
  call void @llvm.lifetime.end.p0(i64 8, ptr %2) #16
  br label %15

15:                                               ; preds = %6, %5
  %16 = load i1, ptr %1, align 1
  ret i1 %16
}

; Function Attrs: nounwind uwtable
define dso_local i64 @WALReadFromBuffers(ptr noundef %0, i64 noundef %1, i64 noundef %2, i32 noundef %3) #0 {
  %5 = alloca i64, align 8
  %6 = alloca ptr, align 8
  %7 = alloca i64, align 8
  %8 = alloca i64, align 8
  %9 = alloca i32, align 4
  %10 = alloca ptr, align 8
  %11 = alloca i64, align 8
  %12 = alloca i64, align 8
  %13 = alloca i64, align 8
  %14 = alloca i32, align 4
  %15 = alloca i32, align 4
  %16 = alloca i32, align 4
  %17 = alloca i32, align 4
  %18 = alloca i32, align 4
  %19 = alloca i64, align 8
  %20 = alloca i64, align 8
  %21 = alloca ptr, align 8
  %22 = alloca ptr, align 8
  %23 = alloca i64, align 8
  store ptr %0, ptr %6, align 8
  store i64 %1, ptr %7, align 8
  store i64 %2, ptr %8, align 8
  store i32 %3, ptr %9, align 4
  call void @llvm.lifetime.start.p0(i64 8, ptr %10) #16
  %24 = load ptr, ptr %6, align 8
  store ptr %24, ptr %10, align 8
  call void @llvm.lifetime.start.p0(i64 8, ptr %11) #16
  %25 = load i64, ptr %7, align 8
  store i64 %25, ptr %11, align 8
  call void @llvm.lifetime.start.p0(i64 8, ptr %12) #16
  call void @llvm.lifetime.start.p0(i64 8, ptr %13) #16
  %26 = load i64, ptr %8, align 8
  store i64 %26, ptr %13, align 8
  %27 = call zeroext i1 @RecoveryInProgress()
  br i1 %27, label %32, label %28

28:                                               ; preds = %4
  %29 = load i32, ptr %9, align 4
  %30 = call i32 @GetWALInsertionTimeLine()
  %31 = icmp ne i32 %29, %30
  br i1 %31, label %32, label %33

32:                                               ; preds = %28, %4
  store i64 0, ptr %5, align 8
  store i32 1, ptr %14, align 4
  br label %164

33:                                               ; preds = %28
  %34 = load ptr, ptr @XLogCtl, align 8
  %35 = getelementptr inbounds nuw %struct.XLogCtlData, ptr %34, i32 0, i32 10
  %36 = call i64 @pg_atomic_read_u64(ptr noundef %35)
  store i64 %36, ptr %12, align 8
  %37 = load i64, ptr %7, align 8
  %38 = load i64, ptr %8, align 8
  %39 = add i64 %37, %38
  %40 = load i64, ptr %12, align 8
  %41 = icmp ugt i64 %39, %40
  br i1 %41, label %42, label %73

42:                                               ; preds = %33
  br label %43

43:                                               ; preds = %42
  br i1 true, label %44, label %46

44:                                               ; preds = %43
  %45 = call zeroext i1 @errstart_cold(i32 noundef 21, ptr noundef null) #17
  br i1 %45, label %48, label %70

46:                                               ; preds = %43
  %47 = call zeroext i1 @errstart(i32 noundef 21, ptr noundef null)
  br i1 %47, label %48, label %70

48:                                               ; preds = %46, %44
  br label %49

49:                                               ; preds = %48
  br label %50

50:                                               ; preds = %49
  br label %51

51:                                               ; preds = %50
  store i32 1, ptr %15, align 4
  %52 = load i64, ptr %7, align 8
  %53 = load i64, ptr %8, align 8
  %54 = add i64 %52, %53
  %55 = lshr i64 %54, 32
  %56 = trunc i64 %55 to i32
  %57 = load i64, ptr %7, align 8
  %58 = load i64, ptr %8, align 8
  %59 = add i64 %57, %58
  %60 = trunc i64 %59 to i32
  br label %61

61:                                               ; preds = %51
  br label %62

62:                                               ; preds = %61
  br label %63

63:                                               ; preds = %62
  store i32 1, ptr %16, align 4
  %64 = load i64, ptr %12, align 8
  %65 = lshr i64 %64, 32
  %66 = trunc i64 %65 to i32
  %67 = load i64, ptr %12, align 8
  %68 = trunc i64 %67 to i32
  %69 = call i32 (ptr, ...) @errmsg(ptr noundef @.str.15, i32 noundef %56, i32 noundef %60, i32 noundef %66, i32 noundef %68)
  call void @errfinish(ptr noundef @.str.14, i32 noundef 1770, ptr noundef @__func__.WALReadFromBuffers)
  br label %70

70:                                               ; preds = %63, %46, %44
  unreachable

71:                                               ; No predecessors!
  br label %72

72:                                               ; preds = %71
  br label %73

73:                                               ; preds = %72, %33
  br label %74

74:                                               ; preds = %157, %73
  %75 = load i64, ptr %13, align 8
  %76 = icmp ugt i64 %75, 0
  br i1 %76, label %77, label %158

77:                                               ; preds = %74
  call void @llvm.lifetime.start.p0(i64 4, ptr %17) #16
  %78 = load i64, ptr %11, align 8
  %79 = urem i64 %78, 8192
  %80 = trunc i64 %79 to i32
  store i32 %80, ptr %17, align 4
  call void @llvm.lifetime.start.p0(i64 4, ptr %18) #16
  %81 = load i64, ptr %11, align 8
  %82 = udiv i64 %81, 8192
  %83 = load ptr, ptr @XLogCtl, align 8
  %84 = getelementptr inbounds nuw %struct.XLogCtlData, ptr %83, i32 0, i32 16
  %85 = load i32, ptr %84, align 8
  %86 = add i32 %85, 1
  %87 = sext i32 %86 to i64
  %88 = urem i64 %82, %87
  %89 = trunc i64 %88 to i32
  store i32 %89, ptr %18, align 4
  call void @llvm.lifetime.start.p0(i64 8, ptr %19) #16
  call void @llvm.lifetime.start.p0(i64 8, ptr %20) #16
  call void @llvm.lifetime.start.p0(i64 8, ptr %21) #16
  call void @llvm.lifetime.start.p0(i64 8, ptr %22) #16
  call void @llvm.lifetime.start.p0(i64 8, ptr %23) #16
  %90 = load i64, ptr %11, align 8
  %91 = load i32, ptr %17, align 4
  %92 = sub i32 8192, %91
  %93 = zext i32 %92 to i64
  %94 = add i64 %90, %93
  store i64 %94, ptr %19, align 8
  %95 = load ptr, ptr @XLogCtl, align 8
  %96 = getelementptr inbounds nuw %struct.XLogCtlData, ptr %95, i32 0, i32 15
  %97 = load ptr, ptr %96, align 8
  %98 = load i32, ptr %18, align 4
  %99 = sext i32 %98 to i64
  %100 = getelementptr inbounds %struct.pg_atomic_uint64, ptr %97, i64 %99
  %101 = call i64 @pg_atomic_read_u64(ptr noundef %100)
  store i64 %101, ptr %20, align 8
  %102 = load i64, ptr %19, align 8
  %103 = load i64, ptr %20, align 8
  %104 = icmp ne i64 %102, %103
  br i1 %104, label %105, label %106

105:                                              ; preds = %77
  store i32 9, ptr %14, align 4
  br label %155

106:                                              ; preds = %77
  %107 = load ptr, ptr @XLogCtl, align 8
  %108 = getelementptr inbounds nuw %struct.XLogCtlData, ptr %107, i32 0, i32 14
  %109 = load ptr, ptr %108, align 8
  %110 = load i32, ptr %18, align 4
  %111 = sext i32 %110 to i64
  %112 = mul i64 %111, 8192
  %113 = getelementptr inbounds nuw i8, ptr %109, i64 %112
  store ptr %113, ptr %21, align 8
  %114 = load ptr, ptr %21, align 8
  %115 = load i32, ptr %17, align 4
  %116 = zext i32 %115 to i64
  %117 = getelementptr inbounds nuw i8, ptr %114, i64 %116
  store ptr %117, ptr %22, align 8
  %118 = load i64, ptr %13, align 8
  %119 = load i32, ptr %17, align 4
  %120 = sub i32 8192, %119
  %121 = zext i32 %120 to i64
  %122 = icmp ult i64 %118, %121
  br i1 %122, label %123, label %125

123:                                              ; preds = %106
  %124 = load i64, ptr %13, align 8
  br label %129

125:                                              ; preds = %106
  %126 = load i32, ptr %17, align 4
  %127 = sub i32 8192, %126
  %128 = zext i32 %127 to i64
  br label %129

129:                                              ; preds = %125, %123
  %130 = phi i64 [ %124, %123 ], [ %128, %125 ]
  store i64 %130, ptr %23, align 8
  call void asm sideeffect "", "~{memory},~{dirflag},~{fpsr},~{flags}"() #16, !srcloc !22
  %131 = load ptr, ptr %10, align 8
  %132 = load ptr, ptr %22, align 8
  %133 = load i64, ptr %23, align 8
  call void @llvm.memcpy.p0.p0.i64(ptr align 1 %131, ptr align 1 %132, i64 %133, i1 false)
  call void asm sideeffect "", "~{memory},~{dirflag},~{fpsr},~{flags}"() #16, !srcloc !23
  %134 = load ptr, ptr @XLogCtl, align 8
  %135 = getelementptr inbounds nuw %struct.XLogCtlData, ptr %134, i32 0, i32 15
  %136 = load ptr, ptr %135, align 8
  %137 = load i32, ptr %18, align 4
  %138 = sext i32 %137 to i64
  %139 = getelementptr inbounds %struct.pg_atomic_uint64, ptr %136, i64 %138
  %140 = call i64 @pg_atomic_read_u64(ptr noundef %139)
  store i64 %140, ptr %20, align 8
  %141 = load i64, ptr %19, align 8
  %142 = load i64, ptr %20, align 8
  %143 = icmp ne i64 %141, %142
  br i1 %143, label %144, label %145

144:                                              ; preds = %129
  store i32 9, ptr %14, align 4
  br label %155

145:                                              ; preds = %129
  %146 = load i64, ptr %23, align 8
  %147 = load ptr, ptr %10, align 8
  %148 = getelementptr inbounds nuw i8, ptr %147, i64 %146
  store ptr %148, ptr %10, align 8
  %149 = load i64, ptr %23, align 8
  %150 = load i64, ptr %11, align 8
  %151 = add i64 %150, %149
  store i64 %151, ptr %11, align 8
  %152 = load i64, ptr %23, align 8
  %153 = load i64, ptr %13, align 8
  %154 = sub i64 %153, %152
  store i64 %154, ptr %13, align 8
  store i32 0, ptr %14, align 4
  br label %155

155:                                              ; preds = %145, %144, %105
  call void @llvm.lifetime.end.p0(i64 8, ptr %23) #16
  call void @llvm.lifetime.end.p0(i64 8, ptr %22) #16
  call void @llvm.lifetime.end.p0(i64 8, ptr %21) #16
  call void @llvm.lifetime.end.p0(i64 8, ptr %20) #16
  call void @llvm.lifetime.end.p0(i64 8, ptr %19) #16
  call void @llvm.lifetime.end.p0(i64 4, ptr %18) #16
  call void @llvm.lifetime.end.p0(i64 4, ptr %17) #16
  %156 = load i32, ptr %14, align 4
  switch i32 %156, label %166 [
    i32 0, label %157
    i32 9, label %158
  ]

157:                                              ; preds = %155
  br label %74, !llvm.loop !24

158:                                              ; preds = %155, %74
  %159 = load ptr, ptr %10, align 8
  %160 = load ptr, ptr %6, align 8
  %161 = ptrtoint ptr %159 to i64
  %162 = ptrtoint ptr %160 to i64
  %163 = sub i64 %161, %162
  store i64 %163, ptr %5, align 8
  store i32 1, ptr %14, align 4
  br label %164

164:                                              ; preds = %158, %32
  call void @llvm.lifetime.end.p0(i64 8, ptr %13) #16
  call void @llvm.lifetime.end.p0(i64 8, ptr %12) #16
  call void @llvm.lifetime.end.p0(i64 8, ptr %11) #16
  call void @llvm.lifetime.end.p0(i64 8, ptr %10) #16
  %165 = load i64, ptr %5, align 8
  ret i64 %165

166:                                              ; preds = %155
  unreachable
}