; Function Attrs: nounwind uwtable
define dso_local i64 @WALReadFromBuffers(ptr noundef %0, i64 noundef %1, i64 noundef %2, i32 noundef %3) local_unnamed_addr #0 {
  %5 = load i8, ptr @LocalRecoveryInProgress, align 1, !range !4, !noundef !5
  %6 = trunc nuw i8 %5 to i1
  %.pre = load ptr, ptr @XLogCtl, align 8
  br i1 %6, label %RecoveryInProgress.exit, label %RecoveryInProgress.exit.thread

RecoveryInProgress.exit:                          ; preds = %4
  %7 = getelementptr inbounds nuw i8, ptr %.pre, i64 324
  %8 = load volatile i32, ptr %7, align 4
  %9 = icmp ne i32 %8, 2
  %10 = zext i1 %9 to i8
  store i8 %10, ptr @LocalRecoveryInProgress, align 1
  br i1 %9, label %60, label %RecoveryInProgress.exit.thread

RecoveryInProgress.exit.thread:                   ; preds = %4, %RecoveryInProgress.exit
  %11 = getelementptr inbounds nuw i8, ptr %.pre, i64 316
  %12 = load i32, ptr %11, align 4
  %.not = icmp eq i32 %3, %12
  br i1 %.not, label %13, label %60

13:                                               ; preds = %RecoveryInProgress.exit.thread
  %14 = getelementptr inbounds nuw i8, ptr %.pre, i64 264
  %15 = load volatile i64, ptr %14, align 8
  %16 = add i64 %2, %1
  %17 = icmp ugt i64 %16, %15
  br i1 %17, label %18, label %.preheader

.preheader:                                       ; preds = %13
  %.not5261 = icmp eq i64 %2, 0
  br i1 %.not5261, label %.thread, label %.lr.ph.preheader

.lr.ph.preheader:                                 ; preds = %.preheader
  %.phi.trans.insert = getelementptr inbounds nuw i8, ptr %.pre, i64 304
  %.pre69 = load ptr, ptr %.phi.trans.insert, align 8
  br label %.lr.ph

18:                                               ; preds = %13
  %19 = tail call zeroext i1 @errstart_cold(i32 noundef 21, ptr noundef null) #27
  tail call void @llvm.assume(i1 %19)
  %20 = lshr i64 %16, 32
  %21 = trunc nuw i64 %20 to i32
  %22 = trunc i64 %16 to i32
  %23 = lshr i64 %15, 32
  %24 = trunc nuw i64 %23 to i32
  %25 = trunc i64 %15 to i32
  %26 = tail call i32 (ptr, ...) @errmsg(ptr noundef nonnull @.str.15, i32 noundef %21, i32 noundef %22, i32 noundef %24, i32 noundef %25) #26
  tail call void @errfinish(ptr noundef nonnull @.str.14, i32 noundef 1770, ptr noundef nonnull @__func__.WALReadFromBuffers) #26
  unreachable

.lr.ph:                                           ; preds = %.lr.ph.preheader, %53
  %27 = phi ptr [ %50, %53 ], [ %.pre69, %.lr.ph.preheader ]
  %28 = phi ptr [ %48, %53 ], [ %.pre, %.lr.ph.preheader ]
  %.04364 = phi ptr [ %54, %53 ], [ %0, %.lr.ph.preheader ]
  %.04463 = phi i64 [ %55, %53 ], [ %1, %.lr.ph.preheader ]
  %.04662 = phi i64 [ %56, %53 ], [ %2, %.lr.ph.preheader ]
  %29 = and i64 %.04463, 8191
  %30 = lshr i64 %.04463, 13
  %31 = getelementptr inbounds nuw i8, ptr %28, i64 312
  %32 = load i32, ptr %31, align 8
  %33 = add i32 %32, 1
  %34 = sext i32 %33 to i64
  %35 = urem i64 %30, %34
  %36 = sub nuw nsw i64 8192, %29
  %37 = add i64 %36, %.04463
  %sext = shl i64 %35, 32
  %38 = ashr exact i64 %sext, 32
  %39 = getelementptr inbounds %struct.pg_atomic_uint64, ptr %27, i64 %38
  %40 = load volatile i64, ptr %39, align 8
  %.not53 = icmp eq i64 %37, %40
  br i1 %.not53, label %41, label %.thread

41:                                               ; preds = %.lr.ph
  %42 = getelementptr inbounds nuw i8, ptr %28, i64 296
  %43 = load ptr, ptr %42, align 8
  %44 = ashr exact i64 %sext, 19
  %45 = getelementptr inbounds nuw i8, ptr %43, i64 %44
  %46 = getelementptr inbounds nuw i8, ptr %45, i64 %29
  %47 = tail call i64 @llvm.umin.i64(i64 %.04662, i64 %36)
  tail call void asm sideeffect "", "~{memory},~{dirflag},~{fpsr},~{flags}"() #26, !srcloc !24
  tail call void @llvm.memcpy.p0.p0.i64(ptr noundef nonnull align 1 dereferenceable(1) %.04364, ptr noundef nonnull align 1 dereferenceable(1) %46, i64 %47, i1 false)
  tail call void asm sideeffect "", "~{memory},~{dirflag},~{fpsr},~{flags}"() #26, !srcloc !25
  %48 = load ptr, ptr @XLogCtl, align 8
  %49 = getelementptr inbounds nuw i8, ptr %48, i64 304
  %50 = load ptr, ptr %49, align 8
  %51 = getelementptr inbounds %struct.pg_atomic_uint64, ptr %50, i64 %38
  %52 = load volatile i64, ptr %51, align 8
  %.not54 = icmp eq i64 %37, %52
  br i1 %.not54, label %53, label %.thread

53:                                               ; preds = %41
  %54 = getelementptr inbounds nuw i8, ptr %.04364, i64 %47
  %55 = add i64 %47, %.04463
  %56 = sub i64 %.04662, %47
  %.not52 = icmp eq i64 %56, 0
  br i1 %.not52, label %.thread, label %.lr.ph

.thread:                                          ; preds = %53, %.lr.ph, %41, %.preheader
  %.043.lcssa = phi ptr [ %0, %.preheader ], [ %.04364, %41 ], [ %.04364, %.lr.ph ], [ %54, %53 ]
  %57 = ptrtoint ptr %.043.lcssa to i64
  %58 = ptrtoint ptr %0 to i64
  %59 = sub i64 %57, %58
  br label %60

60:                                               ; preds = %RecoveryInProgress.exit, %RecoveryInProgress.exit.thread, %.thread
  %.0 = phi i64 [ %59, %.thread ], [ 0, %RecoveryInProgress.exit.thread ], [ 0, %RecoveryInProgress.exit ]
  ret i64 %.0
}